; Function Attrs: mustprogress nofree norecurse nounwind willreturn memory(readwrite, inaccessiblemem: none) uwtable
define noundef i32 @_ZNK7rocksdb23JemallocNodumpAllocator13GetArenaIndexEv(ptr nocapture noundef nonnull readonly align 8 dereferenceable(121) %this) local_unnamed_addr #8 align 2 {
entry:
  %arena_indexes_ = getelementptr inbounds i8, ptr %this, i64 96
  %_M_finish.i = getelementptr inbounds i8, ptr %this, i64 104
  %0 = load ptr, ptr %_M_finish.i, align 8
  %1 = load ptr, ptr %arena_indexes_, align 8
  %sub.ptr.lhs.cast.i = ptrtoint ptr %0 to i64
  %sub.ptr.rhs.cast.i = ptrtoint ptr %1 to i64
  %sub.ptr.sub.i = sub i64 %sub.ptr.lhs.cast.i, %sub.ptr.rhs.cast.i
  %cmp = icmp eq i64 %sub.ptr.sub.i, 4
  br i1 %cmp, label %return, label %if.end

if.end:                                           ; preds = %entry
  %.b = load i1, ptr @_ZGVZNK7rocksdb23JemallocNodumpAllocator13GetArenaIndexEvE9tl_random, align 1
  br i1 %.b, label %init.end, label %seqcst.i, !prof !16

seqcst.i:                                         ; preds = %if.end
  %2 = atomicrmw add ptr @_ZZNK7rocksdb23JemallocNodumpAllocator13GetArenaIndexEvE9next_seed, i32 1 seq_cst, align 4
  %and.i.i = and i32 %2, 2147483647
  %cond.i.i = tail call noundef i32 @llvm.umax.i32(i32 %and.i.i, i32 1)
  store i32 %cond.i.i, ptr @_ZZNK7rocksdb23JemallocNodumpAllocator13GetArenaIndexEvE9tl_random, align 4
  store i1 true, ptr @_ZGVZNK7rocksdb23JemallocNodumpAllocator13GetArenaIndexEvE9tl_random, align 1
  br label %init.end

init.end:                                         ; preds = %seqcst.i, %if.end
  %3 = tail call align 4 ptr @llvm.threadlocal.address.p0(ptr align 4 @_ZZNK7rocksdb23JemallocNodumpAllocator13GetArenaIndexEvE9tl_random)
  %4 = load i32, ptr %3, align 4
  %conv.i = zext i32 %4 to i64
  %mul.i = mul nuw nsw i64 %conv.i, 16807
  %shr.i = lshr i64 %mul.i, 31
  %and.i = and i64 %mul.i, 2147483647
  %add.i = add nuw nsw i64 %shr.i, %and.i
  %conv2.i = trunc i64 %add.i to i32
  %cmp.i = icmp slt i32 %conv2.i, 0
  %sub.i = add i32 %conv2.i, -2147483647
  %spec.select.i = select i1 %cmp.i, i32 %sub.i, i32 %conv2.i
  store i32 %spec.select.i, ptr %3, align 4
  %5 = load ptr, ptr %_M_finish.i, align 8
  %6 = load ptr, ptr %arena_indexes_, align 8
  %sub.ptr.lhs.cast.i6 = ptrtoint ptr %5 to i64
  %sub.ptr.rhs.cast.i7 = ptrtoint ptr %6 to i64
  %sub.ptr.sub.i8 = sub i64 %sub.ptr.lhs.cast.i6, %sub.ptr.rhs.cast.i7
  %sub.ptr.div.i9 = lshr exact i64 %sub.ptr.sub.i8, 2
  %conv.i.i.i = and i64 %sub.ptr.div.i9, 4294967295
  %conv1.i.i.i = zext i32 %spec.select.i to i64
  %mul.i.i.i = mul nuw i64 %conv.i.i.i, %conv1.i.i.i
  %shr.i.i.i = lshr i64 %mul.i.i.i, 32
  %add.ptr.i = getelementptr inbounds i32, ptr %6, i64 %shr.i.i.i
  br label %return

return:                                           ; preds = %entry, %init.end
  %retval.0.in = phi ptr [ %add.ptr.i, %init.end ], [ %1, %entry ]
  %retval.0 = load i32, ptr %retval.0.in, align 4
  ret i32 %retval.0
}